target datalayout = "e-m:e-p270:32:32-p271:32:32-p272:64:64-i64:64-i128:128-f80:128-n8:16:32:64-S128"
target triple = "x86_64-pc-linux-gnu"

@.str.156 = private unnamed_addr constant [54 x i8] c"vba_read_project_strings: call to lseek() has failed\0A\00", align 1
@.str.157 = private unnamed_addr constant [30 x i8] c"read name failed - rewinding\0A\00", align 1
@.str.158 = private unnamed_addr constant [37 x i8] c"call to lseek() in read name failed\0A\00", align 1
@.str.159 = private unnamed_addr constant [22 x i8] c"length: %d, name: %s\0A\00", align 1
@.str.160 = private unnamed_addr constant [7 x i8] c"[null]\00", align 1
@.str.161 = private unnamed_addr constant [3 x i8] c"*\\\00", align 1
@.str.162 = private unnamed_addr constant [5 x i8] c"ghcd\00", align 1
@.str.163 = private unnamed_addr constant [51 x i8] c"call to lseek() after get_unicode_name has failed\0A\00", align 1
@.str.164 = private unnamed_addr constant [28 x i8] c"call to lseek() has failed\0A\00", align 1
@.str.165 = private unnamed_addr constant [13 x i8] c"offset: %lu\0A\00", align 1
@vba56_test_middle.middle1_str = internal constant [20 x i8] c"\00\01\0DE.\E1\E0\8F\10\1A\85.\02`\8CM\0B\B4\00\00", align 16
@vba56_test_middle.middle2_str = internal constant [20 x i8] c"\00\00\E1.E\0D\8F\E0\1A\10\85.\02`\8CM\0B\B4\00\00", align 16
@.str.166 = private unnamed_addr constant [18 x i8] c"middle not found\0A\00", align 1
@.str.167 = private unnamed_addr constant [41 x i8] c"vba_test_middle: call to lseek() failed\0A\00", align 1
@.str.168 = private unnamed_addr constant [14 x i8] c"middle found\0A\00", align 1

; Function Attrs: nounwind uwtable
define internal zeroext i16 @vba_endian_convert_16(i16 noundef zeroext %0, i32 noundef %1) #0 {
  %3 = alloca i16, align 2
  %4 = alloca i16, align 2
  %5 = alloca i32, align 4
  store i16 %0, ptr %4, align 2
  store i32 %1, ptr %5, align 4
  %6 = load i32, ptr %5, align 4
  %7 = icmp ne i32 %6, 0
  br i1 %7, label %8, label %19

8:                                                ; preds = %2
  %9 = load i16, ptr %4, align 2
  %10 = zext i16 %9 to i32
  %11 = and i32 %10, 255
  %12 = shl i32 %11, 8
  %13 = load i16, ptr %4, align 2
  %14 = zext i16 %13 to i32
  %15 = ashr i32 %14, 8
  %16 = and i32 %15, 255
  %17 = or i32 %12, %16
  %18 = trunc i32 %17 to i16
  store i16 %18, ptr %3, align 2
  br label %21

19:                                               ; preds = %2
  %20 = load i16, ptr %4, align 2
  store i16 %20, ptr %3, align 2
  br label %21

21:                                               ; preds = %19, %8
  %22 = load i16, ptr %3, align 2
  ret i16 %22
}

; Function Attrs: nounwind uwtable
define internal void @vba56_test_middle(i32 noundef %0) #0 {
  %2 = alloca i32, align 4
  %3 = alloca [20 x i8], align 16
  store i32 %0, ptr %2, align 4
  %4 = load i32, ptr %2, align 4
  %5 = call i64 @cli_readn(i32 noundef %4, ptr noundef %3, i64 noundef 20)
  %6 = icmp ne i64 %5, 20
  br i1 %6, label %7, label %8

7:                                                ; preds = %1
  br label %23

8:                                                ; preds = %1
  %9 = getelementptr inbounds [20 x i8], ptr %3, i64 0, i64 0
  %10 = call i32 @memcmp(ptr noundef %9, ptr noundef @vba56_test_middle.middle1_str, i64 noundef 20) #9
  %11 = icmp ne i32 %10, 0
  br i1 %11, label %12, label %22

12:                                               ; preds = %8
  %13 = getelementptr inbounds [20 x i8], ptr %3, i64 0, i64 0
  %14 = call i32 @memcmp(ptr noundef %13, ptr noundef @vba56_test_middle.middle2_str, i64 noundef 20) #9
  %15 = icmp ne i32 %14, 0
  br i1 %15, label %16, label %22

16:                                               ; preds = %12
  call void (ptr, ...) @cli_dbgmsg(ptr noundef @.str.166)
  %17 = load i32, ptr %2, align 4
  %18 = call i64 @lseek(i32 noundef %17, i64 noundef -20, i32 noundef 1) #8
  %19 = icmp eq i64 %18, -1
  br i1 %19, label %20, label %21

20:                                               ; preds = %16
  call void (ptr, ...) @cli_dbgmsg(ptr noundef @.str.167)
  br label %23

21:                                               ; preds = %16
  br label %23

22:                                               ; preds = %12, %8
  call void (ptr, ...) @cli_dbgmsg(ptr noundef @.str.168)
  br label %23

23:                                               ; preds = %22, %21, %20, %7
  ret void
}

; Function Attrs: nounwind uwtable
define internal i32 @read_uint16(i32 noundef %0, ptr noundef %1, i32 noundef %2) #0 {
  %4 = alloca i32, align 4
  %5 = alloca i32, align 4
  %6 = alloca ptr, align 8
  %7 = alloca i32, align 4
  store i32 %0, ptr %5, align 4
  store ptr %1, ptr %6, align 8
  store i32 %2, ptr %7, align 4
  %8 = load i32, ptr %5, align 4
  %9 = load ptr, ptr %6, align 8
  %10 = call i64 @cli_readn(i32 noundef %8, ptr noundef %9, i64 noundef 2)
  %11 = icmp ne i64 %10, 2
  br i1 %11, label %12, label %13

12:                                               ; preds = %3
  store i32 0, ptr %4, align 4
  br label %19

13:                                               ; preds = %3
  %14 = load ptr, ptr %6, align 8
  %15 = load i16, ptr %14, align 2
  %16 = load i32, ptr %7, align 4
  %17 = call zeroext i16 @vba_endian_convert_16(i16 noundef zeroext %15, i32 noundef %16)
  %18 = load ptr, ptr %6, align 8
  store i16 %17, ptr %18, align 2
  store i32 1, ptr %4, align 4
  br label %19

19:                                               ; preds = %13, %12
  %20 = load i32, ptr %4, align 4
  ret i32 %20
}

; Function Attrs: nounwind uwtable
define internal i32 @vba_read_project_strings(i32 noundef %0, i32 noundef %1) #0 {
  %3 = alloca i32, align 4
  %4 = alloca i32, align 4
  %5 = alloca ptr, align 8
  %6 = alloca i16, align 2
  %7 = alloca i16, align 2
  %8 = alloca i32, align 4
  %9 = alloca i32, align 4
  %10 = alloca i64, align 8
  %11 = alloca ptr, align 8
  %12 = alloca ptr, align 8
  store i32 %0, ptr %3, align 4
  store i32 %1, ptr %4, align 4
  store ptr null, ptr %5, align 8
  store i16 0, ptr %6, align 2
  store i16 0, ptr %7, align 2
  store i32 0, ptr %8, align 4
  store i32 1, ptr %9, align 4
  br label %13

13:                                               ; preds = %135, %128, %2
  %14 = load i32, ptr %9, align 4
  %15 = icmp ne i32 %14, 0
  br i1 %15, label %16, label %22

16:                                               ; preds = %13
  %17 = load i32, ptr %3, align 4
  %18 = load i32, ptr %4, align 4
  %19 = call i32 @read_uint16(i32 noundef %17, ptr noundef %7, i32 noundef %18)
  %20 = icmp ne i32 %19, 0
  br i1 %20, label %22, label %21

21:                                               ; preds = %16
  store i32 0, ptr %8, align 4
  br label %138

22:                                               ; preds = %16, %13
  store i32 0, ptr %9, align 4
  %23 = load i16, ptr %7, align 2
  %24 = zext i16 %23 to i32
  %25 = icmp slt i32 %24, 6
  br i1 %25, label %26, label %32

26:                                               ; preds = %22
  %27 = load i32, ptr %3, align 4
  %28 = call i64 @lseek(i32 noundef %27, i64 noundef -2, i32 noundef 1) #8
  %29 = icmp eq i64 %28, -1
  br i1 %29, label %30, label %31

30:                                               ; preds = %26
  call void (ptr, ...) @cli_dbgmsg(ptr noundef @.str.156)
  store i32 0, ptr %8, align 4
  br label %31

31:                                               ; preds = %30, %26
  br label %138

32:                                               ; preds = %22
  %33 = load i16, ptr %7, align 2
  %34 = zext i16 %33 to i32
  %35 = load i16, ptr %6, align 2
  %36 = zext i16 %35 to i32
  %37 = icmp sgt i32 %34, %36
  br i1 %37, label %38, label %49

38:                                               ; preds = %32
  %39 = load ptr, ptr %5, align 8
  %40 = load i16, ptr %7, align 2
  %41 = zext i16 %40 to i64
  %42 = call ptr @cli_max_realloc(ptr noundef %39, i64 noundef %41)
  store ptr %42, ptr %12, align 8
  %43 = load ptr, ptr %12, align 8
  %44 = icmp eq ptr %43, null
  br i1 %44, label %45, label %46

45:                                               ; preds = %38
  store i32 0, ptr %8, align 4
  br label %138

46:                                               ; preds = %38
  %47 = load i16, ptr %7, align 2
  store i16 %47, ptr %6, align 2
  %48 = load ptr, ptr %12, align 8
  store ptr %48, ptr %5, align 8
  br label %49

49:                                               ; preds = %46, %32
  %50 = load i32, ptr %3, align 4
  %51 = call i64 @lseek(i32 noundef %50, i64 noundef 0, i32 noundef 1) #8
  store i64 %51, ptr %10, align 8
  %52 = load i64, ptr %10, align 8
  %53 = icmp eq i64 %52, -1
  br i1 %53, label %54, label %55

54:                                               ; preds = %49
  call void (ptr, ...) @cli_dbgmsg(ptr noundef @.str.156)
  store i32 0, ptr %8, align 4
  br label %138

55:                                               ; preds = %49
  %56 = load i32, ptr %3, align 4
  %57 = load ptr, ptr %5, align 8
  %58 = load i16, ptr %7, align 2
  %59 = zext i16 %58 to i64
  %60 = call i64 @cli_readn(i32 noundef %56, ptr noundef %57, i64 noundef %59)
  %61 = load i16, ptr %7, align 2
  %62 = zext i16 %61 to i64
  %63 = icmp ne i64 %60, %62
  br i1 %63, label %64, label %71

64:                                               ; preds = %55
  call void (ptr, ...) @cli_dbgmsg(ptr noundef @.str.157)
  %65 = load i32, ptr %3, align 4
  %66 = load i64, ptr %10, align 8
  %67 = call i64 @lseek(i32 noundef %65, i64 noundef %66, i32 noundef 0) #8
  %68 = icmp eq i64 %67, -1
  br i1 %68, label %69, label %70

69:                                               ; preds = %64
  call void (ptr, ...) @cli_dbgmsg(ptr noundef @.str.158)
  store i32 0, ptr %8, align 4
  br label %70

70:                                               ; preds = %69, %64
  br label %138

71:                                               ; preds = %55
  %72 = load ptr, ptr %5, align 8
  %73 = load i16, ptr %7, align 2
  %74 = zext i16 %73 to i32
  %75 = load i32, ptr %4, align 4
  %76 = call ptr @get_unicode_name(ptr noundef %72, i32 noundef %74, i32 noundef %75)
  store ptr %76, ptr %11, align 8
  %77 = load i16, ptr %7, align 2
  %78 = zext i16 %77 to i32
  %79 = load ptr, ptr %11, align 8
  %80 = icmp ne ptr %79, null
  br i1 %80, label %81, label %83

81:                                               ; preds = %71
  %82 = load ptr, ptr %11, align 8
  br label %84

83:                                               ; preds = %71
  br label %84

84:                                               ; preds = %83, %81
  %85 = phi ptr [ %82, %81 ], [ @.str.160, %83 ]
  call void (ptr, ...) @cli_dbgmsg(ptr noundef @.str.159, i32 noundef %78, ptr noundef %85)
  %86 = load ptr, ptr %11, align 8
  %87 = icmp eq ptr %86, null
  br i1 %87, label %99, label %88

88:                                               ; preds = %84
  %89 = load ptr, ptr %11, align 8
  %90 = call i32 @memcmp(ptr noundef @.str.161, ptr noundef %89, i64 noundef 2) #9
  %91 = icmp ne i32 %90, 0
  br i1 %91, label %99, label %92

92:                                               ; preds = %88
  %93 = load ptr, ptr %11, align 8
  %94 = getelementptr inbounds i8, ptr %93, i64 2
  %95 = load i8, ptr %94, align 1
  %96 = sext i8 %95 to i32
  %97 = call ptr @strchr(ptr noundef @.str.162, i32 noundef %96) #9
  %98 = icmp eq ptr %97, null
  br i1 %98, label %99, label %111

99:                                               ; preds = %92, %88, %84
  %100 = load i32, ptr %3, align 4
  %101 = load i16, ptr %7, align 2
  %102 = zext i16 %101 to i32
  %103 = add nsw i32 %102, 2
  %104 = sub nsw i32 0, %103
  %105 = sext i32 %104 to i64
  %106 = call i64 @lseek(i32 noundef %100, i64 noundef %105, i32 noundef 1) #8
  %107 = icmp eq i64 %106, -1
  br i1 %107, label %108, label %109

108:                                              ; preds = %99
  call void (ptr, ...) @cli_dbgmsg(ptr noundef @.str.163)
  store i32 0, ptr %8, align 4
  br label %109

109:                                              ; preds = %108, %99
  %110 = load ptr, ptr %11, align 8
  call void @free(ptr noundef %110) #8
  br label %138

111:                                              ; preds = %92
  %112 = load ptr, ptr %11, align 8
  call void @free(ptr noundef %112) #8
  %113 = load i32, ptr %3, align 4
  %114 = load i32, ptr %4, align 4
  %115 = call i32 @read_uint16(i32 noundef %113, ptr noundef %7, i32 noundef %114)
  %116 = icmp ne i32 %115, 0
  br i1 %116, label %118, label %117

117:                                              ; preds = %111
  br label %138

118:                                              ; preds = %111
  %119 = load i32, ptr %8, align 4
  %120 = add nsw i32 %119, 1
  store i32 %120, ptr %8, align 4
  %121 = load i16, ptr %7, align 2
  %122 = zext i16 %121 to i32
  %123 = icmp ne i32 %122, 0
  br i1 %123, label %124, label %129

124:                                              ; preds = %118
  %125 = load i16, ptr %7, align 2
  %126 = zext i16 %125 to i32
  %127 = icmp ne i32 %126, 65535
  br i1 %127, label %128, label %129

128:                                              ; preds = %124
  br label %13

129:                                              ; preds = %124, %118
  %130 = load i32, ptr %3, align 4
  %131 = call i64 @lseek(i32 noundef %130, i64 noundef 10, i32 noundef 1) #8
  store i64 %131, ptr %10, align 8
  %132 = load i64, ptr %10, align 8
  %133 = icmp eq i64 %132, -1
  br i1 %133, label %134, label %135

134:                                              ; preds = %129
  call void (ptr, ...) @cli_dbgmsg(ptr noundef @.str.164)
  store i32 0, ptr %8, align 4
  br label %138

135:                                              ; preds = %129
  %136 = load i64, ptr %10, align 8
  call void (ptr, ...) @cli_dbgmsg(ptr noundef @.str.165, i64 noundef %136)
  %137 = load i32, ptr %3, align 4
  call void @vba56_test_middle(i32 noundef %137)
  store i32 1, ptr %9, align 4
  br label %13

138:                                              ; preds = %134, %117, %109, %70, %54, %45, %31, %21
  %139 = load ptr, ptr %5, align 8
  call void @free(ptr noundef %139) #8
  %140 = load i32, ptr %8, align 4
  ret i32 %140
}