; Function Attrs: nounwind uwtable
define internal fastcc i32 @vba_read_project_strings(i32 noundef %0, i32 noundef %1) unnamed_addr #0 {
  %3 = alloca [20 x i8], align 16
  %4 = alloca i16, align 2
  store i16 0, ptr %4, align 2
  %.not.i.i = icmp eq i32 %1, 0
  br label %.backedge

.backedge:                                        ; preds = %.backedge.backedge, %2
  %.037 = phi i32 [ 0, %2 ], [ %61, %.backedge.backedge ]
  %.not = phi i1 [ false, %2 ], [ %or.cond, %.backedge.backedge ]
  %.034 = phi i16 [ 0, %2 ], [ %.135, %.backedge.backedge ]
  %.0 = phi ptr [ null, %2 ], [ %.1, %.backedge.backedge ]
  br i1 %.not, label %thread-pre-split, label %5

5:                                                ; preds = %.backedge
  %6 = call i64 @cli_readn(i32 noundef %0, ptr noundef nonnull %4, i64 noundef 2) #17
  %.not.i = icmp eq i64 %6, 2
  br i1 %.not.i, label %read_uint16.exit, label %read_uint16.exit.thread

read_uint16.exit:                                 ; preds = %5
  %7 = load i16, ptr %4, align 2
  %rev.i.i = call i16 @llvm.bswap.i16(i16 %7)
  %.0.i.i = select i1 %.not.i.i, i16 %7, i16 %rev.i.i
  store i16 %.0.i.i, ptr %4, align 2
  br label %8

thread-pre-split:                                 ; preds = %.backedge
  %.pr = load i16, ptr %4, align 2
  br label %8

8:                                                ; preds = %thread-pre-split, %read_uint16.exit
  %9 = phi i16 [ %.pr, %thread-pre-split ], [ %.0.i.i, %read_uint16.exit ]
  %10 = icmp ult i16 %9, 6
  br i1 %10, label %11, label %15

11:                                               ; preds = %8
  %12 = call i64 @lseek(i32 noundef %0, i64 noundef -2, i32 noundef 1) #17
  %13 = icmp eq i64 %12, -1
  br i1 %13, label %14, label %read_uint16.exit.thread

14:                                               ; preds = %11
  call void (ptr, ...) @cli_dbgmsg(ptr noundef nonnull @.str.156) #17
  br label %read_uint16.exit.thread

15:                                               ; preds = %8
  %16 = icmp ugt i16 %9, %.034
  br i1 %16, label %17, label %23

17:                                               ; preds = %15
  %18 = zext i16 %9 to i64
  %19 = call ptr @cli_max_realloc(ptr noundef %.0, i64 noundef %18) #17
  %20 = icmp eq ptr %19, null
  br i1 %20, label %read_uint16.exit.thread, label %21

21:                                               ; preds = %17
  %22 = load i16, ptr %4, align 2
  br label %23

23:                                               ; preds = %21, %15
  %.135 = phi i16 [ %22, %21 ], [ %.034, %15 ]
  %.1 = phi ptr [ %19, %21 ], [ %.0, %15 ]
  %24 = call i64 @lseek(i32 noundef %0, i64 noundef 0, i32 noundef 1) #17
  %25 = icmp eq i64 %24, -1
  br i1 %25, label %26, label %27

26:                                               ; preds = %23
  call void (ptr, ...) @cli_dbgmsg(ptr noundef nonnull @.str.156) #17
  br label %read_uint16.exit.thread

27:                                               ; preds = %23
  %28 = load i16, ptr %4, align 2
  %29 = zext i16 %28 to i64
  %30 = call i64 @cli_readn(i32 noundef %0, ptr noundef %.1, i64 noundef %29) #17
  %31 = load i16, ptr %4, align 2
  %32 = zext i16 %31 to i64
  %.not46 = icmp eq i64 %30, %32
  br i1 %.not46, label %37, label %33

33:                                               ; preds = %27
  call void (ptr, ...) @cli_dbgmsg(ptr noundef nonnull @.str.157) #17
  %34 = call i64 @lseek(i32 noundef %0, i64 noundef %24, i32 noundef 0) #17
  %35 = icmp eq i64 %34, -1
  br i1 %35, label %36, label %read_uint16.exit.thread

36:                                               ; preds = %33
  call void (ptr, ...) @cli_dbgmsg(ptr noundef nonnull @.str.158) #17
  br label %read_uint16.exit.thread

37:                                               ; preds = %27
  %38 = zext i16 %31 to i32
  %39 = call fastcc ptr @get_unicode_name(ptr noundef %.1, i32 noundef %38, i32 noundef %1)
  %40 = load i16, ptr %4, align 2
  %41 = zext i16 %40 to i32
  %.not47 = icmp eq ptr %39, null
  %42 = select i1 %.not47, ptr @.str.160, ptr %39
  call void (ptr, ...) @cli_dbgmsg(ptr noundef nonnull @.str.159, i32 noundef %41, ptr noundef nonnull %42) #17
  br i1 %.not47, label %49, label %43

43:                                               ; preds = %37
  %bcmp = call i32 @bcmp(ptr noundef nonnull dereferenceable(2) @.str.161, ptr noundef nonnull dereferenceable(2) %39, i64 2)
  %.not48 = icmp eq i32 %bcmp, 0
  br i1 %.not48, label %44, label %49

44:                                               ; preds = %43
  %45 = getelementptr inbounds i8, ptr %39, i64 2
  %46 = load i8, ptr %45, align 1
  %47 = sext i8 %46 to i32
  %memchr = call ptr @memchr(ptr nonnull dereferenceable(1) @.str.162, i32 %47, i64 5)
  %48 = icmp eq ptr %memchr, null
  br i1 %48, label %49, label %57

49:                                               ; preds = %44, %43, %37
  %50 = load i16, ptr %4, align 2
  %51 = zext i16 %50 to i64
  %52 = sub nuw nsw i64 -2, %51
  %53 = call i64 @lseek(i32 noundef %0, i64 noundef %52, i32 noundef 1) #17
  %54 = icmp eq i64 %53, -1
  br i1 %54, label %55, label %56

55:                                               ; preds = %49
  call void (ptr, ...) @cli_dbgmsg(ptr noundef nonnull @.str.163) #17
  br label %56

56:                                               ; preds = %55, %49
  %.138 = phi i32 [ 0, %55 ], [ %.037, %49 ]
  call void @free(ptr noundef %39) #17
  br label %read_uint16.exit.thread

57:                                               ; preds = %44
  call void @free(ptr noundef nonnull %39) #17
  %58 = call i64 @cli_readn(i32 noundef %0, ptr noundef nonnull %4, i64 noundef 2) #17
  %.not.i50 = icmp eq i64 %58, 2
  br i1 %.not.i50, label %59, label %read_uint16.exit.thread

59:                                               ; preds = %57
  %60 = load i16, ptr %4, align 2
  %rev.i.i53 = call i16 @llvm.bswap.i16(i16 %60)
  %.0.i.i54 = select i1 %.not.i.i, i16 %60, i16 %rev.i.i53
  store i16 %.0.i.i54, ptr %4, align 2
  %61 = add nuw nsw i32 %.037, 1
  %62 = add i16 %.0.i.i54, -1
  %or.cond = icmp ult i16 %62, -2
  br i1 %or.cond, label %.backedge.backedge, label %63

63:                                               ; preds = %59
  %64 = call i64 @lseek(i32 noundef %0, i64 noundef 10, i32 noundef 1) #17
  %65 = icmp eq i64 %64, -1
  br i1 %65, label %66, label %67

66:                                               ; preds = %63
  call void (ptr, ...) @cli_dbgmsg(ptr noundef nonnull @.str.164) #17
  br label %read_uint16.exit.thread

67:                                               ; preds = %63
  call void (ptr, ...) @cli_dbgmsg(ptr noundef nonnull @.str.165, i64 noundef %64) #17
  call void @llvm.lifetime.start.p0(i64 20, ptr nonnull %3)
  %68 = call i64 @cli_readn(i32 noundef %0, ptr noundef nonnull %3, i64 noundef 20) #17
  %.not.i56 = icmp eq i64 %68, 20
  br i1 %.not.i56, label %69, label %vba56_test_middle.exit

69:                                               ; preds = %67
  %bcmp.i = call i32 @bcmp(ptr noundef nonnull dereferenceable(20) %3, ptr noundef nonnull dereferenceable(20) @vba56_test_middle.middle1_str, i64 20)
  %.not2.i = icmp eq i32 %bcmp.i, 0
  br i1 %.not2.i, label %.sink.split.i, label %70

70:                                               ; preds = %69
  %bcmp3.i = call i32 @bcmp(ptr noundef nonnull dereferenceable(20) %3, ptr noundef nonnull dereferenceable(20) @vba56_test_middle.middle2_str, i64 20)
  %.not4.i = icmp eq i32 %bcmp3.i, 0
  br i1 %.not4.i, label %.sink.split.i, label %71

71:                                               ; preds = %70
  call void (ptr, ...) @cli_dbgmsg(ptr noundef nonnull @.str.166) #17
  %72 = call i64 @lseek(i32 noundef %0, i64 noundef -20, i32 noundef 1) #17
  %73 = icmp eq i64 %72, -1
  br i1 %73, label %.sink.split.i, label %vba56_test_middle.exit

.sink.split.i:                                    ; preds = %71, %70, %69
  %.str.168.sink.i = phi ptr [ @.str.167, %71 ], [ @.str.168, %70 ], [ @.str.168, %69 ]
  call void (ptr, ...) @cli_dbgmsg(ptr noundef nonnull %.str.168.sink.i) #17
  br label %vba56_test_middle.exit

vba56_test_middle.exit:                           ; preds = %67, %71, %.sink.split.i
  call void @llvm.lifetime.end.p0(i64 20, ptr nonnull %3)
  br label %.backedge.backedge

.backedge.backedge:                               ; preds = %vba56_test_middle.exit, %59
  br label %.backedge

read_uint16.exit.thread:                          ; preds = %57, %5, %17, %33, %36, %11, %14, %66, %56, %26
  %.239 = phi i32 [ 0, %14 ], [ %.037, %11 ], [ 0, %26 ], [ 0, %36 ], [ %.037, %33 ], [ %.138, %56 ], [ 0, %66 ], [ %.037, %57 ], [ 0, %5 ], [ 0, %17 ]
  %.2 = phi ptr [ %.0, %14 ], [ %.0, %11 ], [ %.1, %26 ], [ %.1, %36 ], [ %.1, %33 ], [ %.1, %56 ], [ %.1, %66 ], [ %.1, %57 ], [ %.0, %5 ], [ %.0, %17 ]
  call void @free(ptr noundef %.2) #17
  ret i32 %.239
}